target datalayout = "e-m:e-p270:32:32-p271:32:32-p272:64:64-i64:64-i128:128-f80:128-n8:16:32:64-S128"
target triple = "x86_64-pc-linux-gnu"

%struct._gssapi_encrypt_info = type { i16, ptr, ptr, ptr, ptr, ptr, i8 }
%struct._dcerpc_auth_info = type { i8, i8, i8, i32, i8, i32, ptr, ptr, ptr, ptr, ptr }

; Function Attrs: null_pointer_is_valid sspstrong uwtable
define internal i32 @dissect_gssapi_work_wrapper(ptr noundef %0, ptr noundef %1, ptr noundef %2, ptr noundef %3, i1 noundef zeroext %4) #0 {
  %6 = alloca ptr, align 8
  %7 = alloca ptr, align 8
  %8 = alloca ptr, align 8
  %9 = alloca ptr, align 8
  %10 = alloca i8, align 1
  %11 = alloca i32, align 4
  %12 = alloca %struct._gssapi_encrypt_info, align 8
  store ptr %0, ptr %6, align 8
  store ptr %1, ptr %7, align 8
  store ptr %2, ptr %8, align 8
  store ptr %3, ptr %9, align 8
  %13 = zext i1 %4 to i8
  store i8 %13, ptr %10, align 1
  call void @llvm.lifetime.start.p0(i64 4, ptr %11) #14
  call void @llvm.lifetime.start.p0(i64 56, ptr %12) #14
  %14 = load ptr, ptr %9, align 8
  %15 = icmp ne ptr %14, null
  br i1 %15, label %16, label %18

16:                                               ; preds = %5
  %17 = load ptr, ptr %9, align 8
  call void @llvm.memcpy.p0.p0.i64(ptr align 8 %12, ptr align 8 %17, i64 56, i1 false)
  br label %20

18:                                               ; preds = %5
  %19 = call ptr @memset.inline(ptr noundef %12, i32 noundef 0, i64 noundef 56) #14
  br label %20

20:                                               ; preds = %18, %16
  %21 = load ptr, ptr %6, align 8
  %22 = load ptr, ptr %7, align 8
  %23 = load ptr, ptr %8, align 8
  %24 = load i8, ptr %10, align 1, !range !8, !noundef !9
  %25 = trunc i8 %24 to i1
  %26 = call i32 @dissect_gssapi_work(ptr noundef %21, ptr noundef %22, ptr noundef %23, i1 noundef zeroext %25, ptr noundef %12)
  store i32 %26, ptr %11, align 4
  %27 = load ptr, ptr %9, align 8
  %28 = icmp ne ptr %27, null
  br i1 %28, label %29, label %31

29:                                               ; preds = %20
  %30 = load ptr, ptr %9, align 8
  call void @llvm.memcpy.p0.p0.i64(ptr align 8 %30, ptr align 8 %12, i64 56, i1 false)
  br label %31

31:                                               ; preds = %29, %20
  %32 = load i32, ptr %11, align 4
  call void @llvm.lifetime.end.p0(i64 56, ptr %12) #14
  call void @llvm.lifetime.end.p0(i64 4, ptr %11) #14
  ret i32 %32
}

; Function Attrs: null_pointer_is_valid sspstrong uwtable
define internal i32 @dissect_gssapi(ptr noundef %0, ptr noundef %1, ptr noundef %2, ptr noundef %3) #0 {
  %5 = alloca ptr, align 8
  %6 = alloca ptr, align 8
  %7 = alloca ptr, align 8
  %8 = alloca ptr, align 8
  store ptr %0, ptr %5, align 8
  store ptr %1, ptr %6, align 8
  store ptr %2, ptr %7, align 8
  store ptr %3, ptr %8, align 8
  %9 = load ptr, ptr %5, align 8
  %10 = load ptr, ptr %6, align 8
  %11 = load ptr, ptr %7, align 8
  %12 = load ptr, ptr %8, align 8
  %13 = call i32 @dissect_gssapi_work_wrapper(ptr noundef %9, ptr noundef %10, ptr noundef %11, ptr noundef %12, i1 noundef zeroext false)
  ret i32 %13
}

; Function Attrs: alwaysinline nounwind
define internal ptr @memset.inline(ptr %0, i32 %1, i64 %2) #5 {
  %4 = alloca ptr, align 8
  %5 = alloca i32, align 4
  %6 = alloca i64, align 8
  store ptr %0, ptr %4, align 8
  store i32 %1, ptr %5, align 4
  store i64 %2, ptr %6, align 8
  %7 = load ptr, ptr %4, align 8
  %8 = load i32, ptr %5, align 4
  %9 = load i64, ptr %6, align 8
  %10 = load ptr, ptr %4, align 8
  %11 = call i64 @llvm.objectsize.i64.p0(ptr %10, i1 false, i1 true, i1 true)
  %12 = call ptr @__memset_chk(ptr noundef %7, i32 noundef %8, i64 noundef %9, i64 noundef %11) #14
  ret ptr %12
}

; Function Attrs: null_pointer_is_valid sspstrong uwtable
define hidden ptr @wrap_dissect_gssapi_payload(ptr noundef %0, ptr noundef %1, ptr noundef %2, ptr noundef %3, ptr noundef %4, ptr noundef %5) #0 {
  %7 = alloca ptr, align 8
  %8 = alloca ptr, align 8
  %9 = alloca ptr, align 8
  %10 = alloca ptr, align 8
  %11 = alloca ptr, align 8
  %12 = alloca ptr, align 8
  %13 = alloca ptr, align 8
  %14 = alloca ptr, align 8
  %15 = alloca %struct._gssapi_encrypt_info, align 8
  %16 = alloca i32, align 4
  store ptr %0, ptr %8, align 8
  store ptr %1, ptr %9, align 8
  store ptr %2, ptr %10, align 8
  store ptr %3, ptr %11, align 8
  store ptr %4, ptr %12, align 8
  store ptr %5, ptr %13, align 8
  call void @llvm.lifetime.start.p0(i64 8, ptr %14) #14
  call void @llvm.lifetime.start.p0(i64 56, ptr %15) #14
  %17 = call ptr @memset.inline(ptr noundef %15, i32 noundef 0, i64 noundef 56) #14
  %18 = load ptr, ptr %11, align 8
  %19 = icmp ne ptr %18, null
  br i1 %19, label %20, label %23

20:                                               ; preds = %6
  %21 = load ptr, ptr %9, align 8
  %22 = icmp ne ptr %21, null
  br i1 %22, label %24, label %23

23:                                               ; preds = %20, %6
  store ptr null, ptr %7, align 8
  store i32 1, ptr %16, align 4
  br label %44

24:                                               ; preds = %20
  %25 = load ptr, ptr %13, align 8
  %26 = getelementptr inbounds nuw %struct._dcerpc_auth_info, ptr %25, i32 0, i32 0
  %27 = load i8, ptr %26, align 8, !range !8, !noundef !9
  %28 = trunc i8 %27 to i1
  br i1 %28, label %30, label %29

29:                                               ; preds = %24
  store ptr null, ptr %8, align 8
  store ptr null, ptr %10, align 8
  br label %30

30:                                               ; preds = %29, %24
  %31 = getelementptr inbounds nuw %struct._gssapi_encrypt_info, ptr %15, i32 0, i32 0
  store i16 2, ptr %31, align 8
  %32 = load ptr, ptr %8, align 8
  %33 = getelementptr inbounds nuw %struct._gssapi_encrypt_info, ptr %15, i32 0, i32 2
  store ptr %32, ptr %33, align 8
  %34 = load ptr, ptr %9, align 8
  %35 = getelementptr inbounds nuw %struct._gssapi_encrypt_info, ptr %15, i32 0, i32 3
  store ptr %34, ptr %35, align 8
  %36 = load ptr, ptr %10, align 8
  %37 = getelementptr inbounds nuw %struct._gssapi_encrypt_info, ptr %15, i32 0, i32 4
  store ptr %36, ptr %37, align 8
  %38 = load ptr, ptr %11, align 8
  %39 = load ptr, ptr %12, align 8
  %40 = call i32 @dissect_gssapi(ptr noundef %38, ptr noundef %39, ptr noundef null, ptr noundef %15)
  %41 = getelementptr inbounds nuw %struct._gssapi_encrypt_info, ptr %15, i32 0, i32 5
  %42 = load ptr, ptr %41, align 8
  store ptr %42, ptr %14, align 8
  %43 = load ptr, ptr %14, align 8
  store ptr %43, ptr %7, align 8
  store i32 1, ptr %16, align 4
  br label %44

44:                                               ; preds = %30, %23
  call void @llvm.lifetime.end.p0(i64 56, ptr %15) #14
  call void @llvm.lifetime.end.p0(i64 8, ptr %14) #14
  %45 = load ptr, ptr %7, align 8
  ret ptr %45
}