; Function Attrs: null_pointer_is_valid sspstrong uwtable
define hidden ptr @wrap_dissect_gssapi_payload(ptr noundef %0, ptr noundef %1, ptr noundef %2, ptr noundef %3, ptr noundef %4, ptr noundef readonly captures(none) %5) #0 {
  %7 = alloca %struct._gssapi_encrypt_info, align 8
  %8 = icmp ne ptr %3, null
  %9 = icmp ne ptr %1, null
  %or.cond = and i1 %9, %8
  br i1 %or.cond, label %10, label %14

10:                                               ; preds = %6
  %11 = load i8, ptr %5, align 8, !range !8, !noundef !9
  %12 = trunc nuw i8 %11 to i1
  %spec.select = select i1 %12, ptr %2, ptr null
  %spec.select15 = select i1 %12, ptr %0, ptr null
  call void @llvm.lifetime.start.p0(i64 56, ptr nonnull %7) #13
  store i16 2, ptr %7, align 8
  %.sroa.6.0..sroa_idx = getelementptr inbounds nuw i8, ptr %7, i64 2
  call void @llvm.memset.p0.i64(ptr noundef nonnull align 2 dereferenceable(14) %.sroa.6.0..sroa_idx, i8 0, i64 14, i1 false)
  %.sroa.618.0..sroa_idx = getelementptr inbounds nuw i8, ptr %7, i64 16
  store ptr %spec.select15, ptr %.sroa.618.0..sroa_idx, align 8
  %.sroa.7.0..sroa_idx = getelementptr inbounds nuw i8, ptr %7, i64 24
  store ptr %1, ptr %.sroa.7.0..sroa_idx, align 8
  %.sroa.8.0..sroa_idx = getelementptr inbounds nuw i8, ptr %7, i64 32
  store ptr %spec.select, ptr %.sroa.8.0..sroa_idx, align 8
  %.sroa.9.0..sroa_idx = getelementptr inbounds nuw i8, ptr %7, i64 40
  call void @llvm.memset.p0.i64(ptr noundef nonnull align 8 dereferenceable(16) %.sroa.9.0..sroa_idx, i8 0, i64 16, i1 false)
  %13 = call fastcc i32 @dissect_gssapi_work(ptr noundef nonnull %3, ptr noundef %4, ptr noundef null, i1 noundef zeroext false, ptr noundef nonnull %7)
  %.sroa.9.0.copyload26 = load ptr, ptr %.sroa.9.0..sroa_idx, align 8
  call void @llvm.lifetime.end.p0(i64 56, ptr nonnull %7) #13
  br label %14

14:                                               ; preds = %6, %10
  %.0 = phi ptr [ %.sroa.9.0.copyload26, %10 ], [ null, %6 ]
  ret ptr %.0
}